libkolfprivate.so.5.0.0:_ZN10CourseInfoC1Ev
libkolfprivate.so.5.0.0:_ZN10CourseInfoC2Ev
libkolfprivate.so.5.0.0:_ZN10KolfWindow10queryCloseEv
libkolfprivate.so.5.0.0:_ZN10KolfWindow10saveGameAsEv
libkolfprivate.so.5.0.0:_ZN10KolfWindow11inPlayStartEv
libkolfprivate.so.5.0.0:_ZN10KolfWindow11qt_metacallEN11QMetaObject4CallEiPPv
libkolfprivate.so.5.0.0:_ZN10KolfWindow11qt_metacastEPKc
libkolfprivate.so.5.0.0:_ZN10KolfWindow12checkEditingEv
libkolfprivate.so.5.0.0:_ZN10KolfWindow12createSpacerEv
libkolfprivate.so.5.0.0:_ZN10KolfWindow12editingEndedEv
libkolfprivate.so.5.0.0:_ZN10KolfWindow12setupActionsEv
libkolfprivate.so.5.0.0:_ZN10KolfWindow12soundChangedEb
libkolfprivate.so.5.0.0:_ZN10KolfWindow12startNewGameEv
libkolfprivate.so.5.0.0:_ZN10KolfWindow12titleChangedERK7QString
libkolfprivate.so.5.0.0:_ZN10KolfWindow13newStatusTextERK7QString
libkolfprivate.so.5.0.0:_ZN10KolfWindow14editingStartedEv
libkolfprivate.so.5.0.0:_ZN10KolfWindow14newPlayersTurnEP6Player
libkolfprivate.so.5.0.0:_ZN10KolfWindow14setCurrentHoleEi
libkolfprivate.so.5.0.0:_ZN10KolfWindow14showHighScoresEv
libkolfprivate.so.5.0.0:_ZN10KolfWindow14updateHoleMenuEi
libkolfprivate.so.5.0.0:_ZN10KolfWindow14updateModifiedEb
libkolfprivate.so.5.0.0:_ZN10KolfWindow15showInfoChangedEb
libkolfprivate.so.5.0.0:_ZN10KolfWindow15useMouseChangedEb
libkolfprivate.so.5.0.0:_ZN10KolfWindow17enableAllMessagesEv
libkolfprivate.so.5.0.0:_ZN10KolfWindow17maxStrokesReachedERK7QString
libkolfprivate.so.5.0.0:_ZN10KolfWindow19setHoleOtherEnabledEb
libkolfprivate.so.5.0.0:_ZN10KolfWindow20showGuideLineChangedEb
libkolfprivate.so.5.0.0:_ZN10KolfWindow22setHoleMovementEnabledEb
libkolfprivate.so.5.0.0:_ZN10KolfWindow25useAdvancedPuttingChangedEb
libkolfprivate.so.5.0.0:_ZN10KolfWindow4saveEv
libkolfprivate.so.5.0.0:_ZN10KolfWindow6saveAsEv
libkolfprivate.so.5.0.0:_ZN10KolfWindow7newGameEv
libkolfprivate.so.5.0.0:_ZN10KolfWindow7openUrlERK4QUrl
libkolfprivate.so.5.0.0:_ZN10KolfWindow8gameOverEv
libkolfprivate.so.5.0.0:_ZN10KolfWindow8loadGameEv
libkolfprivate.so.5.0.0:_ZN10KolfWindow8saveGameEv
libkolfprivate.so.5.0.0:_ZN10KolfWindow8tutorialEv
libkolfprivate.so.5.0.0:_ZN10KolfWindow9closeGameEv
libkolfprivate.so.5.0.0:_ZN10KolfWindow9inPlayEndEv
libkolfprivate.so.5.0.0:_ZN10KolfWindowC1Ev
libkolfprivate.so.5.0.0:_ZN10KolfWindowC2Ev
libkolfprivate.so.5.0.0:_ZN10KolfWindowD0Ev
libkolfprivate.so.5.0.0:_ZN10KolfWindowD1Ev
libkolfprivate.so.5.0.0:_ZN10KolfWindowD2Ev
libkolfprivate.so.5.0.0:_ZN8KolfGame10addNewHoleEv
libkolfprivate.so.5.0.0:_ZN8KolfGame10courseInfoER10CourseInfoRK7QString
libkolfprivate.so.5.0.0:_ZN8KolfGame10parChangedEii
libkolfprivate.so.5.0.0:_ZN8KolfGame10saveScoresEP7KConfig
libkolfprivate.so.5.0.0:_ZN8KolfGame10switchHoleERK7QString
libkolfprivate.so.5.0.0:_ZN8KolfGame10switchHoleEi
libkolfprivate.so.5.0.0:_ZN8KolfGame11addHoleInfoER13BallStateList
libkolfprivate.so.5.0.0:_ZN8KolfGame11currentHoleEi
libkolfprivate.so.5.0.0:_ZN8KolfGame11fastTimeoutEv
libkolfprivate.so.5.0.0:_ZN8KolfGame11inPlayStartEv
libkolfprivate.so.5.0.0:_ZN8KolfGame11largestHoleEi
libkolfprivate.so.5.0.0:_ZN8KolfGame11puttReleaseEv
libkolfprivate.so.5.0.0:_ZN8KolfGame11qt_metacallEN11QMetaObject4CallEiPPv
libkolfprivate.so.5.0.0:_ZN8KolfGame11qt_metacastEPKc
libkolfprivate.so.5.0.0:_ZN8KolfGame11resizeEventEP12QResizeEvent
libkolfprivate.so.5.0.0:_ZN8KolfGame11setFilenameERK7QString
libkolfprivate.so.5.0.0:_ZN8KolfGame11setModifiedEb
libkolfprivate.so.5.0.0:_ZN8KolfGame11setShowInfoEb
libkolfprivate.so.5.0.0:_ZN8KolfGame11showInfoDlgEb
libkolfprivate.so.5.0.0:_ZN8KolfGame11stoppedBallEv
libkolfprivate.so.5.0.0:_ZN8KolfGame11updateMouseEv
libkolfprivate.so.5.0.0:_ZN8KolfGame12addNewObjectERK7QString
libkolfprivate.so.5.0.0:_ZN8KolfGame12checkEditingEv
libkolfprivate.so.5.0.0:_ZN8KolfGame12editingEndedEv
libkolfprivate.so.5.0.0:_ZN8KolfGame12sayWhosGoingEv
libkolfprivate.so.5.0.0:_ZN8KolfGame12scoreChangedEiii
libkolfprivate.so.5.0.0:_ZN8KolfGame12titleChangedERK7QString
libkolfprivate.so.5.0.0:_ZN8KolfGame13keyPressEventEP9QKeyEvent
libkolfprivate.so.5.0.0:_ZN8KolfGame13loadStateListEv
libkolfprivate.so.5.0.0:_ZN8KolfGame13newStatusTextERK7QString
libkolfprivate.so.5.0.0:_ZN8KolfGame13putterTimeoutEv
libkolfprivate.so.5.0.0:_ZN8KolfGame13startNextHoleEv
libkolfprivate.so.5.0.0:_ZN8KolfGame14editingStartedEv
libkolfprivate.so.5.0.0:_ZN8KolfGame14mouseMoveEventEP11QMouseEvent
libkolfprivate.so.5.0.0:_ZN8KolfGame14newPlayersTurnEP6Player
libkolfprivate.so.5.0.0:_ZN8KolfGame14setBorderWallsEb
libkolfprivate.so.5.0.0:_ZN8KolfGame14startFirstHoleEi
libkolfprivate.so.5.0.0:_ZN8KolfGame14toggleEditModeEv
libkolfprivate.so.5.0.0:_ZN8KolfGame14toggleShowInfoEv
libkolfprivate.so.5.0.0:_ZN8KolfGame14updateShowInfoEv
libkolfprivate.so.5.0.0:_ZN8KolfGame15autoSaveTimeoutEv
libkolfprivate.so.5.0.0:_ZN8KolfGame15keyReleaseEventEP9QKeyEvent
libkolfprivate.so.5.0.0:_ZN8KolfGame15modifiedChangedEb
libkolfprivate.so.5.0.0:_ZN8KolfGame15mousePressEventEP11QMouseEvent
libkolfprivate.so.5.0.0:_ZN8KolfGame15newSelectedItemEP10CanvasItem
libkolfprivate.so.5.0.0:_ZN8KolfGame15scoresFromSavedEP7KConfigR5QListI6PlayerE
libkolfprivate.so.5.0.0:_ZN8KolfGame15setSelectedItemEP10CanvasItem
libkolfprivate.so.5.0.0:_ZN8KolfGame16setShowGuideLineEb
libkolfprivate.so.5.0.0:_ZN8KolfGame17maxStrokesReachedERK7QString
libkolfprivate.so.5.0.0:_ZN8KolfGame17mouseReleaseEventEP11QMouseEvent
libkolfprivate.so.5.0.0:_ZN8KolfGame17recreateStateListEv
libkolfprivate.so.5.0.0:_ZN8KolfGame18viewportToViewportERK6QPoint
libkolfprivate.so.5.0.0:_ZN8KolfGame20handleMouseMoveEventEP11QMouseEvent
libkolfprivate.so.5.0.0:_ZN8KolfGame21handleMousePressEventEP11QMouseEvent
libkolfprivate.so.5.0.0:_ZN8KolfGame21mouseDoubleClickEventEP11QMouseEvent
libkolfprivate.so.5.0.0:_ZN8KolfGame21setUseAdvancedPuttingEb
libkolfprivate.so.5.0.0:_ZN8KolfGame23handleMouseReleaseEventEP11QMouseEvent
libkolfprivate.so.5.0.0:_ZN8KolfGame27handleMouseDoubleClickEventEP11QMouseEvent
libkolfprivate.so.5.0.0:_ZN8KolfGame4saveEv
libkolfprivate.so.5.0.0:_ZN8KolfGame5pauseEv
libkolfprivate.so.5.0.0:_ZN8KolfGame7askSaveEb
libkolfprivate.so.5.0.0:_ZN8KolfGame7emitMaxEv
libkolfprivate.so.5.0.0:_ZN8KolfGame7newHoleEi
libkolfprivate.so.5.0.0:_ZN8KolfGame7timeoutEv
libkolfprivate.so.5.0.0:_ZN8KolfGame7unPauseEv
libkolfprivate.so.5.0.0:_ZN8KolfGame8holeDoneEv
libkolfprivate.so.5.0.0:_ZN8KolfGame8lastHoleEv
libkolfprivate.so.5.0.0:_ZN8KolfGame8nextHoleEv
libkolfprivate.so.5.0.0:_ZN8KolfGame8openFileEv
libkolfprivate.so.5.0.0:_ZN8KolfGame8prevHoleEv
libkolfprivate.so.5.0.0:_ZN8KolfGame8randHoleEv
libkolfprivate.so.5.0.0:_ZN8KolfGame8setSoundEb
libkolfprivate.so.5.0.0:_ZN8KolfGame8shotDoneEv
libkolfprivate.so.5.0.0:_ZN8KolfGame8undoShotEv
libkolfprivate.so.5.0.0:_ZN8KolfGame9ballMovedEv
libkolfprivate.so.5.0.0:_ZN8KolfGame9clearHoleEv
libkolfprivate.so.5.0.0:_ZN8KolfGame9firstHoleEv
libkolfprivate.so.5.0.0:_ZN8KolfGame9holesDoneEv
libkolfprivate.so.5.0.0:_ZN8KolfGame9inPlayEndEv
libkolfprivate.so.5.0.0:_ZN8KolfGame9playSoundE5Sound
libkolfprivate.so.5.0.0:_ZN8KolfGame9puttPressEv
libkolfprivate.so.5.0.0:_ZN8KolfGame9resetHoleEv
libkolfprivate.so.5.0.0:_ZN8KolfGame9shotStartEv
libkolfprivate.so.5.0.0:_ZN8KolfGame9startBallERK6Vector
libkolfprivate.so.5.0.0:_ZN8KolfGameC1ERKN4Kolf11ItemFactoryEP5QListI6PlayerERK7QStringP7QWidget
libkolfprivate.so.5.0.0:_ZN8KolfGameC2ERKN4Kolf11ItemFactoryEP5QListI6PlayerERK7QStringP7QWidget
libkolfprivate.so.5.0.0:_ZN8KolfGameD0Ev
libkolfprivate.so.5.0.0:_ZN8KolfGameD1Ev
libkolfprivate.so.5.0.0:_ZN8KolfGameD2Ev
libkolfprivate.so.5.0.0:_ZNK10KolfWindow10metaObjectEv
libkolfprivate.so.5.0.0:_ZNK8KolfGame10metaObjectEv
libkolfprivate.so.5.0.0:_ZThn16_N10KolfWindowD0Ev
libkolfprivate.so.5.0.0:_ZThn16_N10KolfWindowD1Ev
libkolfprivate.so.5.0.0:_ZThn16_N8KolfGameD0Ev
libkolfprivate.so.5.0.0:_ZThn16_N8KolfGameD1Ev
libkolfprivate.so.5.0.0:_ZThn56_N10KolfWindowD0Ev
libkolfprivate.so.5.0.0:_ZThn56_N10KolfWindowD1Ev
libkolfprivate.so.5.0.0:_ZTv0_n24_N10KolfWindowD0Ev
libkolfprivate.so.5.0.0:_ZTv0_n24_N10KolfWindowD1Ev
